; Function Attrs: mustprogress nounwind uwtable
define dso_local void @_ZN4node7tracing15NodeTraceWriter12ExitSignalCbEP10uv_async_s(ptr noundef %signal) #0 align 2 {
entry:
  %0 = ptrtoint ptr %signal to i64
  %sub.i.i = add i64 %0, -144
  %1 = inttoptr i64 %sub.i.i to ptr
  %flush_signal_ = getelementptr inbounds i8, ptr %1, i64 16
  tail call void @uv_close(ptr noundef nonnull %flush_signal_, ptr noundef nonnull @"_ZZN4node7tracing15NodeTraceWriter12ExitSignalCbEP10uv_async_sEN3$_08__invokeEP11uv_handle_s") #12
  ret void
}